; Function Attrs: mustprogress nounwind uwtable
define void @_ZN8facebook5velox14LocalWriteFile5flushEv(ptr nocapture noundef nonnull readonly align 8 dereferenceable(32) %this) unnamed_addr #6 align 2 {
entry:
  %closed_ = getelementptr inbounds i8, ptr %this, i64 24
  %0 = load i8, ptr %closed_, align 8
  %1 = and i8 %0, 1
  %tobool.not = icmp eq i8 %1, 0
  br i1 %tobool.not, label %if.end, label %if.then

if.then:                                          ; preds = %entry
  tail call void @llvm.trap()
  unreachable

if.end:                                           ; preds = %entry
  %file_ = getelementptr inbounds i8, ptr %this, i64 8
  %2 = load ptr, ptr %file_, align 8
  %call = tail call i32 @fflush(ptr noundef %2)
  %cmp.not = icmp eq i32 %call, 0
  br i1 %cmp.not, label %if.end5, label %if.then4

if.then4:                                         ; preds = %if.end
  tail call void @llvm.trap()
  unreachable

if.end5:                                          ; preds = %if.end
  ret void
}